; Function Attrs: mustprogress uwtable
define internal noundef zeroext i1 @_ZNSt17_Function_handlerIFbPN3dap15FieldSerializerEEZN12_GLOBAL__N_14Impl4sendEPKNS0_8TypeInfoES8_PKvRKSt8functionIFvSA_PKNS0_5ErrorEEEEUlS2_E_E10_M_managerERSt9_Any_dataRKSL_St18_Manager_operation(ptr nocapture noundef nonnull align 8 dereferenceable(16) %0, ptr nocapture noundef nonnull readonly align 8 dereferenceable(16) %1, i32 noundef %2) #0 align 2 {
  switch i32 %2, label %_ZNSt14_Function_base13_Base_managerIZN12_GLOBAL__N_14Impl4sendEPKN3dap8TypeInfoES6_PKvRKSt8functionIFvS8_PKNS3_5ErrorEEEEUlPNS3_15FieldSerializerEE_E10_M_managerERSt9_Any_dataRKSL_St18_Manager_operation.exit [
    i32 0, label %4
    i32 1, label %5
    i32 3, label %8
    i32 2, label %6
  ]

4:                                                ; preds = %3
  store ptr @_ZTIZN12_GLOBAL__N_14Impl4sendEPKN3dap8TypeInfoES4_PKvRKSt8functionIFvS6_PKNS1_5ErrorEEEEUlPNS1_15FieldSerializerEE_, ptr %0, align 8
  br label %_ZNSt14_Function_base13_Base_managerIZN12_GLOBAL__N_14Impl4sendEPKN3dap8TypeInfoES6_PKvRKSt8functionIFvS8_PKNS3_5ErrorEEEEUlPNS3_15FieldSerializerEE_E10_M_managerERSt9_Any_dataRKSL_St18_Manager_operation.exit

5:                                                ; preds = %3
  %.val = load ptr, ptr %1, align 8
  store ptr %.val, ptr %0, align 8
  br label %_ZNSt14_Function_base13_Base_managerIZN12_GLOBAL__N_14Impl4sendEPKN3dap8TypeInfoES6_PKvRKSt8functionIFvS8_PKNS3_5ErrorEEEEUlPNS3_15FieldSerializerEE_E10_M_managerERSt9_Any_dataRKSL_St18_Manager_operation.exit

6:                                                ; preds = %3
  %.val6 = load ptr, ptr %1, align 8
  %7 = tail call noalias noundef nonnull dereferenceable(24) ptr @_Znwm(i64 noundef 24) #24
  tail call void @llvm.memcpy.p0.p0.i64(ptr noundef nonnull align 16 dereferenceable(24) %7, ptr noundef nonnull align 8 dereferenceable(24) %.val6, i64 24, i1 false)
  store ptr %7, ptr %0, align 8
  br label %_ZNSt14_Function_base13_Base_managerIZN12_GLOBAL__N_14Impl4sendEPKN3dap8TypeInfoES6_PKvRKSt8functionIFvS8_PKNS3_5ErrorEEEEUlPNS3_15FieldSerializerEE_E10_M_managerERSt9_Any_dataRKSL_St18_Manager_operation.exit

8:                                                ; preds = %3
  %.val7.i = load ptr, ptr %0, align 8
  %9 = icmp eq ptr %.val7.i, null
  br i1 %9, label %_ZNSt14_Function_base13_Base_managerIZN12_GLOBAL__N_14Impl4sendEPKN3dap8TypeInfoES6_PKvRKSt8functionIFvS8_PKNS3_5ErrorEEEEUlPNS3_15FieldSerializerEE_E10_M_managerERSt9_Any_dataRKSL_St18_Manager_operation.exit, label %10

10:                                               ; preds = %8
  tail call void @_ZdlPv(ptr noundef nonnull %.val7.i) #25
  br label %_ZNSt14_Function_base13_Base_managerIZN12_GLOBAL__N_14Impl4sendEPKN3dap8TypeInfoES6_PKvRKSt8functionIFvS8_PKNS3_5ErrorEEEEUlPNS3_15FieldSerializerEE_E10_M_managerERSt9_Any_dataRKSL_St18_Manager_operation.exit

_ZNSt14_Function_base13_Base_managerIZN12_GLOBAL__N_14Impl4sendEPKN3dap8TypeInfoES6_PKvRKSt8functionIFvS8_PKNS3_5ErrorEEEEUlPNS3_15FieldSerializerEE_E10_M_managerERSt9_Any_dataRKSL_St18_Manager_operation.exit: ; preds = %3, %10, %8, %6, %5, %4
  ret i1 false
}